target datalayout = "e-m:e-p270:32:32-p271:32:32-p272:64:64-i64:64-i128:128-f80:128-n8:16:32:64-S128"
target triple = "x86_64-pc-linux-gnu"

%class.btSequentialImpulseConstraintSolverMt = type { %class.btSequentialImpulseConstraintSolver, %struct.btBatchedConstraints, %struct.btBatchedConstraints, i32, i8, i8, [2 x i8], %class.btAlignedObjectArray.10, %class.btAlignedObjectArray.2, %class.btSpinMutex, [64 x i8], %class.btSpinMutex, %class.btAlignedObjectArray.8 }
%class.btSequentialImpulseConstraintSolver = type { %class.btConstraintSolver, %class.btAlignedObjectArray, %class.btAlignedObjectArray.0, %class.btAlignedObjectArray.0, %class.btAlignedObjectArray.0, %class.btAlignedObjectArray.0, %class.btAlignedObjectArray.2, %class.btAlignedObjectArray.2, %class.btAlignedObjectArray.2, %class.btAlignedObjectArray.4, i32, i32, %class.btAlignedObjectArray.2, ptr, ptr, ptr, i32, float, i64, %struct.btSolverAnalyticsData }
%class.btConstraintSolver = type { ptr }
%class.btAlignedObjectArray = type <{ [4 x i8], i32, i32, [4 x i8], ptr, i8, [7 x i8] }>
%class.btAlignedObjectArray.0 = type <{ [4 x i8], i32, i32, [4 x i8], ptr, i8, [7 x i8] }>
%class.btAlignedObjectArray.4 = type <{ [4 x i8], i32, i32, [4 x i8], ptr, i8, [7 x i8] }>
%struct.btSolverAnalyticsData = type { i32, i32, i32, i32, i32, double }
%struct.btBatchedConstraints = type { %class.btAlignedObjectArray.2, %class.btAlignedObjectArray.6, %class.btAlignedObjectArray.6, %class.btAlignedObjectArray.8, %class.btAlignedObjectArray.2, ptr }
%class.btAlignedObjectArray.6 = type <{ [4 x i8], i32, i32, [4 x i8], ptr, i8, [7 x i8] }>
%class.btAlignedObjectArray.10 = type <{ [4 x i8], i32, i32, [4 x i8], ptr, i8, [7 x i8] }>
%class.btAlignedObjectArray.2 = type <{ [4 x i8], i32, i32, [4 x i8], ptr, i8, [7 x i8] }>
%class.btSpinMutex = type { i32 }
%class.btAlignedObjectArray.8 = type <{ [4 x i8], i32, i32, [4 x i8], ptr, i8, [7 x i8] }>
%class.btVector3 = type { [4 x float] }
%struct.btSolverConstraint = type { %class.btVector3, %class.btVector3, %class.btVector3, %class.btVector3, %class.btVector3, %class.btVector3, float, float, float, float, float, float, float, float, float, %union.anon.12, i32, i32, i32, i32 }
%union.anon.12 = type { ptr }
%struct.btSolverBody = type { %class.btTransform, %class.btVector3, %class.btVector3, %class.btVector3, %class.btVector3, %class.btVector3, %class.btVector3, %class.btVector3, %class.btVector3, %class.btVector3, %class.btVector3, %class.btVector3, ptr }
%class.btTransform = type { %class.btMatrix3x3, %class.btVector3 }
%class.btMatrix3x3 = type { [3 x %class.btVector3] }

; Function Attrs: inlinehint mustprogress nounwind uwtable
define linkonce_odr dso_local noundef nonnull align 8 dereferenceable(248) ptr @_ZN20btAlignedObjectArrayI12btSolverBodyEixEi(ptr noundef nonnull align 8 dereferenceable(25) %0, i32 noundef %1) #4 comdat align 2 {
  %3 = alloca ptr, align 8
  %4 = alloca i32, align 4
  store ptr %0, ptr %3, align 8, !tbaa !101
  store i32 %1, ptr %4, align 4, !tbaa !9
  %5 = load ptr, ptr %3, align 8
  %6 = getelementptr inbounds nuw %class.btAlignedObjectArray, ptr %5, i32 0, i32 4
  %7 = load ptr, ptr %6, align 8, !tbaa !103
  %8 = load i32, ptr %4, align 4, !tbaa !9
  %9 = sext i32 %8 to i64
  %10 = getelementptr inbounds %struct.btSolverBody, ptr %7, i64 %9
  ret ptr %10
}

; Function Attrs: inlinehint mustprogress nounwind uwtable
define linkonce_odr dso_local noundef nonnull align 8 dereferenceable(160) ptr @_ZN20btAlignedObjectArrayI18btSolverConstraintEixEi(ptr noundef nonnull align 8 dereferenceable(25) %0, i32 noundef %1) #4 comdat align 2 {
  %3 = alloca ptr, align 8
  %4 = alloca i32, align 4
  store ptr %0, ptr %3, align 8, !tbaa !98
  store i32 %1, ptr %4, align 4, !tbaa !9
  %5 = load ptr, ptr %3, align 8
  %6 = getelementptr inbounds nuw %class.btAlignedObjectArray.0, ptr %5, i32 0, i32 4
  %7 = load ptr, ptr %6, align 8, !tbaa !100
  %8 = load i32, ptr %4, align 4, !tbaa !9
  %9 = sext i32 %8 to i64
  %10 = getelementptr inbounds %struct.btSolverConstraint, ptr %7, i64 %9
  ret ptr %10
}

; Function Attrs: inlinehint mustprogress nounwind uwtable
define linkonce_odr dso_local noundef nonnull align 4 dereferenceable(4) ptr @_ZNK20btAlignedObjectArrayIiEixEi(ptr noundef nonnull align 8 dereferenceable(25) %0, i32 noundef %1) #4 comdat align 2 {
  %3 = alloca ptr, align 8
  %4 = alloca i32, align 4
  store ptr %0, ptr %3, align 8, !tbaa !56
  store i32 %1, ptr %4, align 4, !tbaa !9
  %5 = load ptr, ptr %3, align 8
  %6 = getelementptr inbounds nuw %class.btAlignedObjectArray.2, ptr %5, i32 0, i32 4
  %7 = load ptr, ptr %6, align 8, !tbaa !106
  %8 = load i32, ptr %4, align 4, !tbaa !9
  %9 = sext i32 %8 to i64
  %10 = getelementptr inbounds i32, ptr %7, i64 %9
  ret ptr %10
}

; Function Attrs: mustprogress uwtable
define dso_local noundef float @_ZN37btSequentialImpulseConstraintSolverMt41resolveMultipleContactFrictionConstraintsERK20btAlignedObjectArrayIiEii(ptr noundef nonnull align 8 dereferenceable(920) %0, ptr noundef nonnull align 8 dereferenceable(25) %1, i32 noundef %2, i32 noundef %3) #2 align 2 {
  %5 = alloca ptr, align 8
  %6 = alloca ptr, align 8
  %7 = alloca i32, align 4
  %8 = alloca i32, align 4
  %9 = alloca float, align 4
  %10 = alloca i32, align 4
  %11 = alloca i32, align 4
  %12 = alloca i32, align 4
  %13 = alloca float, align 4
  %14 = alloca i32, align 4
  %15 = alloca i32, align 4
  %16 = alloca i32, align 4
  %17 = alloca ptr, align 8
  %18 = alloca ptr, align 8
  %19 = alloca ptr, align 8
  %20 = alloca float, align 4
  store ptr %0, ptr %5, align 8, !tbaa !12
  store ptr %1, ptr %6, align 8, !tbaa !56
  store i32 %2, ptr %7, align 4, !tbaa !9
  store i32 %3, ptr %8, align 4, !tbaa !9
  %21 = load ptr, ptr %5, align 8
  call void @llvm.lifetime.start.p0(i64 4, ptr %9) #16
  store float 0.000000e+00, ptr %9, align 4, !tbaa !85
  call void @llvm.lifetime.start.p0(i64 4, ptr %10) #16
  %22 = load i32, ptr %7, align 4, !tbaa !9
  store i32 %22, ptr %10, align 4, !tbaa !9
  br label %23

23:                                               ; preds = %98, %4
  %24 = load i32, ptr %10, align 4, !tbaa !9
  %25 = load i32, ptr %8, align 4, !tbaa !9
  %26 = icmp slt i32 %24, %25
  br i1 %26, label %28, label %27

27:                                               ; preds = %23
  store i32 2, ptr %11, align 4
  call void @llvm.lifetime.end.p0(i64 4, ptr %10) #16
  br label %101

28:                                               ; preds = %23
  call void @llvm.lifetime.start.p0(i64 4, ptr %12) #16
  %29 = load ptr, ptr %6, align 8, !tbaa !56
  %30 = load i32, ptr %10, align 4, !tbaa !9
  %31 = call noundef nonnull align 4 dereferenceable(4) ptr @_ZNK20btAlignedObjectArrayIiEixEi(ptr noundef nonnull align 8 dereferenceable(25) %29, i32 noundef %30)
  %32 = load i32, ptr %31, align 4, !tbaa !9
  store i32 %32, ptr %12, align 4, !tbaa !9
  call void @llvm.lifetime.start.p0(i64 4, ptr %13) #16
  %33 = getelementptr inbounds nuw %class.btSequentialImpulseConstraintSolver, ptr %21, i32 0, i32 2
  %34 = load i32, ptr %12, align 4, !tbaa !9
  %35 = call noundef nonnull align 8 dereferenceable(160) ptr @_ZN20btAlignedObjectArrayI18btSolverConstraintEixEi(ptr noundef nonnull align 8 dereferenceable(25) %33, i32 noundef %34)
  %36 = getelementptr inbounds nuw %struct.btSolverConstraint, ptr %35, i32 0, i32 7
  %37 = load float, ptr %36, align 4, !tbaa !275
  store float %37, ptr %13, align 4, !tbaa !85
  %38 = load float, ptr %13, align 4, !tbaa !85
  %39 = fcmp ogt float %38, 0.000000e+00
  br i1 %39, label %40, label %97

40:                                               ; preds = %28
  call void @llvm.lifetime.start.p0(i64 4, ptr %14) #16
  %41 = load i32, ptr %12, align 4, !tbaa !9
  %42 = getelementptr inbounds nuw %class.btSequentialImpulseConstraintSolverMt, ptr %21, i32 0, i32 3
  %43 = load i32, ptr %42, align 8, !tbaa !16
  %44 = mul nsw i32 %41, %43
  store i32 %44, ptr %14, align 4, !tbaa !9
  call void @llvm.lifetime.start.p0(i64 4, ptr %15) #16
  %45 = load i32, ptr %14, align 4, !tbaa !9
  %46 = getelementptr inbounds nuw %class.btSequentialImpulseConstraintSolverMt, ptr %21, i32 0, i32 3
  %47 = load i32, ptr %46, align 8, !tbaa !16
  %48 = add nsw i32 %45, %47
  store i32 %48, ptr %15, align 4, !tbaa !9
  call void @llvm.lifetime.start.p0(i64 4, ptr %16) #16
  %49 = load i32, ptr %14, align 4, !tbaa !9
  store i32 %49, ptr %16, align 4, !tbaa !9
  br label %50

50:                                               ; preds = %93, %40
  %51 = load i32, ptr %16, align 4, !tbaa !9
  %52 = load i32, ptr %15, align 4, !tbaa !9
  %53 = icmp slt i32 %51, %52
  br i1 %53, label %55, label %54

54:                                               ; preds = %50
  store i32 5, ptr %11, align 4
  call void @llvm.lifetime.end.p0(i64 4, ptr %16) #16
  br label %96

55:                                               ; preds = %50
  call void @llvm.lifetime.start.p0(i64 8, ptr %17) #16
  %56 = getelementptr inbounds nuw %class.btSequentialImpulseConstraintSolver, ptr %21, i32 0, i32 4
  %57 = load i32, ptr %16, align 4, !tbaa !9
  %58 = add nsw i32 %57, 1
  store i32 %58, ptr %16, align 4, !tbaa !9
  %59 = call noundef nonnull align 8 dereferenceable(160) ptr @_ZN20btAlignedObjectArrayI18btSolverConstraintEixEi(ptr noundef nonnull align 8 dereferenceable(25) %56, i32 noundef %57)
  store ptr %59, ptr %17, align 8, !tbaa !68
  %60 = load ptr, ptr %17, align 8, !tbaa !68
  %61 = getelementptr inbounds nuw %struct.btSolverConstraint, ptr %60, i32 0, i32 8
  %62 = load float, ptr %61, align 8, !tbaa !276
  %63 = load float, ptr %13, align 4, !tbaa !85
  %64 = fmul float %62, %63
  %65 = fneg float %64
  %66 = load ptr, ptr %17, align 8, !tbaa !68
  %67 = getelementptr inbounds nuw %struct.btSolverConstraint, ptr %66, i32 0, i32 12
  store float %65, ptr %67, align 8, !tbaa !277
  %68 = load ptr, ptr %17, align 8, !tbaa !68
  %69 = getelementptr inbounds nuw %struct.btSolverConstraint, ptr %68, i32 0, i32 8
  %70 = load float, ptr %69, align 8, !tbaa !276
  %71 = load float, ptr %13, align 4, !tbaa !85
  %72 = fmul float %70, %71
  %73 = load ptr, ptr %17, align 8, !tbaa !68
  %74 = getelementptr inbounds nuw %struct.btSolverConstraint, ptr %73, i32 0, i32 13
  store float %72, ptr %74, align 4, !tbaa !278
  call void @llvm.lifetime.start.p0(i64 8, ptr %18) #16
  %75 = getelementptr inbounds nuw %class.btSequentialImpulseConstraintSolver, ptr %21, i32 0, i32 1
  %76 = load ptr, ptr %17, align 8, !tbaa !68
  %77 = getelementptr inbounds nuw %struct.btSolverConstraint, ptr %76, i32 0, i32 18
  %78 = load i32, ptr %77, align 8, !tbaa !69
  %79 = call noundef nonnull align 8 dereferenceable(248) ptr @_ZN20btAlignedObjectArrayI12btSolverBodyEixEi(ptr noundef nonnull align 8 dereferenceable(25) %75, i32 noundef %78)
  store ptr %79, ptr %18, align 8, !tbaa !73
  call void @llvm.lifetime.start.p0(i64 8, ptr %19) #16
  %80 = getelementptr inbounds nuw %class.btSequentialImpulseConstraintSolver, ptr %21, i32 0, i32 1
  %81 = load ptr, ptr %17, align 8, !tbaa !68
  %82 = getelementptr inbounds nuw %struct.btSolverConstraint, ptr %81, i32 0, i32 19
  %83 = load i32, ptr %82, align 4, !tbaa !72
  %84 = call noundef nonnull align 8 dereferenceable(248) ptr @_ZN20btAlignedObjectArrayI12btSolverBodyEixEi(ptr noundef nonnull align 8 dereferenceable(25) %80, i32 noundef %83)
  store ptr %84, ptr %19, align 8, !tbaa !73
  call void @llvm.lifetime.start.p0(i64 4, ptr %20) #16
  %85 = load ptr, ptr %18, align 8, !tbaa !73
  %86 = load ptr, ptr %19, align 8, !tbaa !73
  %87 = load ptr, ptr %17, align 8, !tbaa !68
  %88 = call noundef float @_ZN35btSequentialImpulseConstraintSolver33resolveSingleConstraintRowGenericER12btSolverBodyS1_RK18btSolverConstraint(ptr noundef nonnull align 8 dereferenceable(408) %21, ptr noundef nonnull align 8 dereferenceable(248) %85, ptr noundef nonnull align 8 dereferenceable(248) %86, ptr noundef nonnull align 8 dereferenceable(160) %87)
  store float %88, ptr %20, align 4, !tbaa !85
  %89 = load float, ptr %20, align 4, !tbaa !85
  %90 = load float, ptr %20, align 4, !tbaa !85
  %91 = load float, ptr %9, align 4, !tbaa !85
  %92 = call float @llvm.fmuladd.f32(float %89, float %90, float %91)
  store float %92, ptr %9, align 4, !tbaa !85
  call void @llvm.lifetime.end.p0(i64 4, ptr %20) #16
  call void @llvm.lifetime.end.p0(i64 8, ptr %19) #16
  call void @llvm.lifetime.end.p0(i64 8, ptr %18) #16
  call void @llvm.lifetime.end.p0(i64 8, ptr %17) #16
  br label %93

93:                                               ; preds = %55
  %94 = load i32, ptr %16, align 4, !tbaa !9
  %95 = add nsw i32 %94, 1
  store i32 %95, ptr %16, align 4, !tbaa !9
  br label %50, !llvm.loop !279

96:                                               ; preds = %54
  call void @llvm.lifetime.end.p0(i64 4, ptr %15) #16
  call void @llvm.lifetime.end.p0(i64 4, ptr %14) #16
  br label %97

97:                                               ; preds = %96, %28
  call void @llvm.lifetime.end.p0(i64 4, ptr %13) #16
  call void @llvm.lifetime.end.p0(i64 4, ptr %12) #16
  br label %98

98:                                               ; preds = %97
  %99 = load i32, ptr %10, align 4, !tbaa !9
  %100 = add nsw i32 %99, 1
  store i32 %100, ptr %10, align 4, !tbaa !9
  br label %23, !llvm.loop !280

101:                                              ; preds = %27
  %102 = load float, ptr %9, align 4, !tbaa !85
  store i32 1, ptr %11, align 4
  call void @llvm.lifetime.end.p0(i64 4, ptr %9) #16
  ret float %102
}