; Function Attrs: mustprogress uwtable
define dso_local noundef float @_ZN37btSequentialImpulseConstraintSolverMt41resolveMultipleContactFrictionConstraintsERK20btAlignedObjectArrayIiEii(ptr noundef nonnull align 8 dereferenceable(920) %0, ptr noundef nonnull readonly align 8 captures(none) dereferenceable(25) %1, i32 noundef %2, i32 noundef %3) local_unnamed_addr #0 align 2 {
  %5 = icmp slt i32 %2, %3
  br i1 %5, label %.lr.ph37, label %._crit_edge

.lr.ph37:                                         ; preds = %4
  %6 = getelementptr inbounds nuw i8, ptr %1, i64 16
  %7 = getelementptr inbounds nuw i8, ptr %0, i64 56
  %8 = getelementptr inbounds nuw i8, ptr %0, i64 744
  %9 = getelementptr inbounds nuw i8, ptr %0, i64 120
  %10 = getelementptr inbounds nuw i8, ptr %0, i64 24
  %11 = sext i32 %2 to i64
  br label %12

._crit_edge:                                      ; preds = %.loopexit, %4
  %.0.lcssa = phi float [ 0.000000e+00, %4 ], [ %.1, %.loopexit ]
  ret float %.0.lcssa

12:                                               ; preds = %.lr.ph37, %.loopexit
  %indvars.iv40 = phi i64 [ %11, %.lr.ph37 ], [ %indvars.iv.next41, %.loopexit ]
  %.036 = phi float [ 0.000000e+00, %.lr.ph37 ], [ %.1, %.loopexit ]
  %13 = load ptr, ptr %6, align 8, !tbaa !15
  %14 = getelementptr inbounds i32, ptr %13, i64 %indvars.iv40
  %15 = load i32, ptr %14, align 4, !tbaa !67
  %16 = load ptr, ptr %7, align 8, !tbaa !68
  %17 = sext i32 %15 to i64
  %18 = getelementptr inbounds %struct.btSolverConstraint, ptr %16, i64 %17, i32 7
  %19 = load float, ptr %18, align 4, !tbaa !236
  %20 = fcmp ogt float %19, 0.000000e+00
  br i1 %20, label %21, label %.loopexit

21:                                               ; preds = %12
  %22 = load i32, ptr %8, align 8, !tbaa !44
  %23 = icmp sgt i32 %22, 0
  br i1 %23, label %.lr.ph, label %.loopexit

.lr.ph:                                           ; preds = %21
  %24 = mul i32 %22, %15
  %25 = add nsw i32 %24, %22
  %26 = fneg float %19
  %27 = sext i32 %24 to i64
  %28 = sext i32 %25 to i64
  br label %29

29:                                               ; preds = %.lr.ph, %29
  %indvars.iv = phi i64 [ %27, %.lr.ph ], [ %indvars.iv.next, %29 ]
  %.234 = phi float [ %.036, %.lr.ph ], [ %48, %29 ]
  %30 = load ptr, ptr %9, align 8, !tbaa !68
  %31 = getelementptr inbounds %struct.btSolverConstraint, ptr %30, i64 %indvars.iv
  %32 = getelementptr inbounds nuw i8, ptr %31, i64 104
  %33 = load float, ptr %32, align 8, !tbaa !237
  %34 = fmul float %33, %26
  %35 = getelementptr inbounds nuw i8, ptr %31, i64 120
  store float %34, ptr %35, align 8, !tbaa !238
  %36 = fmul float %19, %33
  %37 = getelementptr inbounds nuw i8, ptr %31, i64 124
  store float %36, ptr %37, align 4, !tbaa !239
  %38 = getelementptr inbounds nuw i8, ptr %31, i64 152
  %39 = load i32, ptr %38, align 8, !tbaa !69
  %40 = load ptr, ptr %10, align 8, !tbaa !73
  %41 = sext i32 %39 to i64
  %42 = getelementptr inbounds %struct.btSolverBody, ptr %40, i64 %41
  %43 = getelementptr inbounds nuw i8, ptr %31, i64 156
  %44 = load i32, ptr %43, align 4, !tbaa !72
  %45 = sext i32 %44 to i64
  %46 = getelementptr inbounds %struct.btSolverBody, ptr %40, i64 %45
  %47 = tail call noundef float @_ZN35btSequentialImpulseConstraintSolver33resolveSingleConstraintRowGenericER12btSolverBodyS1_RK18btSolverConstraint(ptr noundef nonnull align 8 dereferenceable(408) %0, ptr noundef nonnull align 8 dereferenceable(248) %42, ptr noundef nonnull align 8 dereferenceable(248) %46, ptr noundef nonnull align 8 dereferenceable(160) %31)
  %48 = tail call float @llvm.fmuladd.f32(float %47, float %47, float %.234)
  %indvars.iv.next = add nsw i64 %indvars.iv, 2
  %49 = icmp slt i64 %indvars.iv.next, %28
  br i1 %49, label %29, label %.loopexit, !llvm.loop !240

.loopexit:                                        ; preds = %29, %21, %12
  %.1 = phi float [ %.036, %12 ], [ %.036, %21 ], [ %48, %29 ]
  %indvars.iv.next41 = add nsw i64 %indvars.iv40, 1
  %lftr.wideiv = trunc i64 %indvars.iv.next41 to i32
  %exitcond.not = icmp eq i32 %3, %lftr.wideiv
  br i1 %exitcond.not, label %._crit_edge, label %12, !llvm.loop !241
}